(lp0
S'poi'
p1
aS'salary'
p2
aS'total_payments'
p3
aS'exercised_stock_options'
p4
aS'bonus'
p5
aS'restricted_stock'
p6
aS'shared_receipt_with_poi'
p7
aS'total_stock_value'
p8
aS'expenses'
p9
aS'deferred_income'
p10
aS'long_term_incentive'
p11
aS'from_poi_to_this_person'
p12
a.